target datalayout = "e-m:e-p270:32:32-p271:32:32-p272:64:64-i64:64-i128:128-f80:128-n8:16:32:64-S128"
target triple = "x86_64-pc-linux-gnu"

%struct._zend_compiler_globals = type { %struct._zend_stack, ptr, ptr, i32, ptr, ptr, ptr, ptr, i8, i8, i8, i8, i8, %struct._zend_llist, ptr, i8, i8, i8, i8, ptr, i32, i32, %struct._zend_oparray_context, %struct._zend_file_context, ptr, %struct._zend_array, ptr, i64, i8, i8, i8, ptr, ptr, %struct._zend_stack, ptr, i32, ptr, ptr, i64, i64, ptr, ptr, ptr, ptr, i32, %struct._zend_stack }
%struct._zend_llist = type { ptr, ptr, i64, i64, ptr, i8, ptr }
%struct._zend_oparray_context = type { i32, i32, i32, i32, i32, i32, i32, ptr, ptr, i8 }
%struct._zend_file_context = type { %struct._zend_declarables, ptr, i8, i8, ptr, ptr, ptr, %struct._zend_array }
%struct._zend_declarables = type { i64 }
%struct._zend_array = type { %struct._zend_refcounted_h, %union.anon.4, i32, %union.anon.6, i32, i32, i32, i32, i64, ptr }
%struct._zend_refcounted_h = type { i32, %union.anon }
%union.anon = type { i32 }
%union.anon.4 = type { i32 }
%union.anon.6 = type { ptr }
%struct._zend_stack = type { i32, i32, i32, ptr }
%struct._zend_string = type { %struct._zend_refcounted_h, i64, i64, [1 x i8] }

@compiler_globals = external global %struct._zend_compiler_globals, align 8
@startup_done = internal global i8 0, align 1
@.str.18 = private unnamed_addr constant [5 x i8] c"self\00", align 1
@.str.19 = private unnamed_addr constant [7 x i8] c"parent\00", align 1

; Function Attrs: nounwind uwtable
define ptr @zend_map_ptr_new() #0 {
  %1 = alloca ptr, align 8
  %2 = load i64, ptr getelementptr inbounds (%struct._zend_compiler_globals, ptr @compiler_globals, i32 0, i32 39), align 8
  %3 = load i64, ptr getelementptr inbounds (%struct._zend_compiler_globals, ptr @compiler_globals, i32 0, i32 38), align 8
  %4 = icmp uge i64 %2, %3
  br i1 %4, label %5, label %18

5:                                                ; preds = %0
  %6 = load i64, ptr getelementptr inbounds (%struct._zend_compiler_globals, ptr @compiler_globals, i32 0, i32 39), align 8
  %7 = add i64 %6, 1
  %8 = add i64 %7, 4095
  %9 = and i64 %8, -4096
  store i64 %9, ptr getelementptr inbounds (%struct._zend_compiler_globals, ptr @compiler_globals, i32 0, i32 38), align 8
  %10 = load ptr, ptr getelementptr inbounds (%struct._zend_compiler_globals, ptr @compiler_globals, i32 0, i32 36), align 8
  %11 = load i64, ptr getelementptr inbounds (%struct._zend_compiler_globals, ptr @compiler_globals, i32 0, i32 38), align 8
  %12 = mul i64 %11, 8
  %13 = call ptr @__zend_realloc(ptr noundef %10, i64 noundef %12) #22
  store ptr %13, ptr getelementptr inbounds (%struct._zend_compiler_globals, ptr @compiler_globals, i32 0, i32 36), align 8
  %14 = load ptr, ptr getelementptr inbounds (%struct._zend_compiler_globals, ptr @compiler_globals, i32 0, i32 36), align 8
  %15 = ptrtoint ptr %14 to i64
  %16 = sub i64 %15, 1
  %17 = inttoptr i64 %16 to ptr
  store ptr %17, ptr getelementptr inbounds (%struct._zend_compiler_globals, ptr @compiler_globals, i32 0, i32 37), align 8
  br label %18

18:                                               ; preds = %5, %0
  %19 = load ptr, ptr getelementptr inbounds (%struct._zend_compiler_globals, ptr @compiler_globals, i32 0, i32 36), align 8
  %20 = load i64, ptr getelementptr inbounds (%struct._zend_compiler_globals, ptr @compiler_globals, i32 0, i32 39), align 8
  %21 = getelementptr inbounds ptr, ptr %19, i64 %20
  store ptr %21, ptr %1, align 8
  %22 = load ptr, ptr %1, align 8
  store ptr null, ptr %22, align 8
  %23 = load i64, ptr getelementptr inbounds (%struct._zend_compiler_globals, ptr @compiler_globals, i32 0, i32 39), align 8
  %24 = add i64 %23, 1
  store i64 %24, ptr getelementptr inbounds (%struct._zend_compiler_globals, ptr @compiler_globals, i32 0, i32 39), align 8
  %25 = load ptr, ptr %1, align 8
  %26 = load ptr, ptr getelementptr inbounds (%struct._zend_compiler_globals, ptr @compiler_globals, i32 0, i32 37), align 8
  %27 = ptrtoint ptr %25 to i64
  %28 = ptrtoint ptr %26 to i64
  %29 = sub i64 %27, %28
  %30 = inttoptr i64 %29 to ptr
  ret ptr %30
}

; Function Attrs: nounwind uwtable
define void @zend_alloc_ce_cache(ptr noundef %0) #0 {
  %2 = alloca ptr, align 8
  %3 = alloca i32, align 4
  %4 = alloca i32, align 4
  %5 = alloca i32, align 4
  %6 = alloca i32, align 4
  %7 = alloca ptr, align 8
  %8 = alloca i32, align 4
  store ptr %0, ptr %7, align 8
  %9 = load ptr, ptr %7, align 8
  %10 = getelementptr inbounds %struct._zend_string, ptr %9, i32 0, i32 0
  %11 = getelementptr inbounds %struct._zend_refcounted_h, ptr %10, i32 0, i32 1
  %12 = load i32, ptr %11, align 4
  store i32 %12, ptr %4, align 4
  %13 = load i32, ptr %4, align 4
  %14 = and i32 %13, 1008
  %15 = and i32 %14, 32
  %16 = icmp ne i32 %15, 0
  br i1 %16, label %26, label %17

17:                                               ; preds = %1
  %18 = load ptr, ptr %7, align 8
  %19 = getelementptr inbounds %struct._zend_string, ptr %18, i32 0, i32 0
  %20 = getelementptr inbounds %struct._zend_refcounted_h, ptr %19, i32 0, i32 1
  %21 = load i32, ptr %20, align 4
  store i32 %21, ptr %5, align 4
  %22 = load i32, ptr %5, align 4
  %23 = and i32 %22, 1008
  %24 = and i32 %23, 64
  %25 = icmp ne i32 %24, 0
  br i1 %25, label %27, label %26

26:                                               ; preds = %17, %1
  br label %90

27:                                               ; preds = %17
  %28 = load ptr, ptr %7, align 8
  %29 = getelementptr inbounds %struct._zend_string, ptr %28, i32 0, i32 0
  %30 = getelementptr inbounds %struct._zend_refcounted_h, ptr %29, i32 0, i32 1
  %31 = load i32, ptr %30, align 4
  store i32 %31, ptr %6, align 4
  %32 = load i32, ptr %6, align 4
  %33 = and i32 %32, 1008
  %34 = and i32 %33, 256
  %35 = icmp ne i32 %34, 0
  br i1 %35, label %36, label %40

36:                                               ; preds = %27
  %37 = load i8, ptr @startup_done, align 1
  %38 = trunc i8 %37 to i1
  br i1 %38, label %39, label %40

39:                                               ; preds = %36
  br label %90

40:                                               ; preds = %36, %27
  %41 = load ptr, ptr %7, align 8
  %42 = getelementptr inbounds %struct._zend_string, ptr %41, i32 0, i32 2
  %43 = load i64, ptr %42, align 8
  %44 = icmp eq i64 %43, 4
  br i1 %44, label %45, label %54

45:                                               ; preds = %40
  %46 = load ptr, ptr %7, align 8
  %47 = getelementptr inbounds %struct._zend_string, ptr %46, i32 0, i32 3
  %48 = getelementptr inbounds [1 x i8], ptr %47, i64 0, i64 0
  %49 = load ptr, ptr %7, align 8
  %50 = getelementptr inbounds %struct._zend_string, ptr %49, i32 0, i32 2
  %51 = load i64, ptr %50, align 8
  %52 = call i32 @zend_binary_strcasecmp(ptr noundef %48, i64 noundef %51, ptr noundef @.str.18, i64 noundef 4)
  %53 = icmp ne i32 %52, 0
  br i1 %53, label %54, label %68

54:                                               ; preds = %45, %40
  %55 = load ptr, ptr %7, align 8
  %56 = getelementptr inbounds %struct._zend_string, ptr %55, i32 0, i32 2
  %57 = load i64, ptr %56, align 8
  %58 = icmp eq i64 %57, 6
  br i1 %58, label %59, label %69

59:                                               ; preds = %54
  %60 = load ptr, ptr %7, align 8
  %61 = getelementptr inbounds %struct._zend_string, ptr %60, i32 0, i32 3
  %62 = getelementptr inbounds [1 x i8], ptr %61, i64 0, i64 0
  %63 = load ptr, ptr %7, align 8
  %64 = getelementptr inbounds %struct._zend_string, ptr %63, i32 0, i32 2
  %65 = load i64, ptr %64, align 8
  %66 = call i32 @zend_binary_strcasecmp(ptr noundef %62, i64 noundef %65, ptr noundef @.str.19, i64 noundef 6)
  %67 = icmp ne i32 %66, 0
  br i1 %67, label %69, label %68

68:                                               ; preds = %59, %45
  br label %90

69:                                               ; preds = %59, %54
  br label %70

70:                                               ; preds = %74, %69
  %71 = call ptr @zend_map_ptr_new()
  %72 = ptrtoint ptr %71 to i64
  %73 = trunc i64 %72 to i32
  store i32 %73, ptr %8, align 4
  br label %74

74:                                               ; preds = %70
  %75 = load i32, ptr %8, align 4
  %76 = icmp ule i32 %75, 2
  br i1 %76, label %70, label %77

77:                                               ; preds = %74
  br label %78

78:                                               ; preds = %77
  %79 = load ptr, ptr %7, align 8
  %80 = getelementptr inbounds %struct._zend_string, ptr %79, i32 0, i32 0
  %81 = getelementptr inbounds %struct._zend_refcounted_h, ptr %80, i32 0, i32 1
  %82 = load i32, ptr %81, align 4
  %83 = or i32 %82, 32
  store i32 %83, ptr %81, align 4
  br label %84

84:                                               ; preds = %78
  %85 = load ptr, ptr %7, align 8
  %86 = getelementptr inbounds %struct._zend_string, ptr %85, i32 0, i32 0
  %87 = load i32, ptr %8, align 4
  store ptr %86, ptr %2, align 8
  store i32 %87, ptr %3, align 4
  %88 = load i32, ptr %3, align 4
  %89 = load ptr, ptr %2, align 8
  store i32 %88, ptr %89, align 4
  br label %90

90:                                               ; preds = %84, %68, %39, %26
  ret void
}