; Function Attrs: nounwind uwtable
define void @zend_alloc_ce_cache(ptr noundef %0) local_unnamed_addr #0 {
  %2 = getelementptr inbounds i8, ptr %0, i64 4
  %3 = load i32, ptr %2, align 4
  %4 = and i32 %3, 96
  %or.cond.not = icmp eq i32 %4, 64
  br i1 %or.cond.not, label %5, label %47

5:                                                ; preds = %1
  %6 = and i32 %3, 256
  %.not20 = icmp eq i32 %6, 0
  br i1 %.not20, label %8, label %7

7:                                                ; preds = %5
  %.b21 = load i1, ptr @startup_done, align 1
  br i1 %.b21, label %47, label %8

8:                                                ; preds = %7, %5
  %9 = getelementptr inbounds i8, ptr %0, i64 16
  %10 = load i64, ptr %9, align 8
  %11 = icmp eq i64 %10, 4
  br i1 %11, label %12, label %15

12:                                               ; preds = %8
  %13 = getelementptr inbounds i8, ptr %0, i64 24
  %14 = tail call i32 @zend_binary_strcasecmp(ptr noundef nonnull %13, i64 noundef 4, ptr noundef nonnull @.str.18, i64 noundef 4) #30
  %.not22 = icmp eq i32 %14, 0
  br i1 %.not22, label %47, label %thread-pre-split

thread-pre-split:                                 ; preds = %12
  %.pr = load i64, ptr %9, align 8
  br label %15

15:                                               ; preds = %thread-pre-split, %8
  %16 = phi i64 [ %.pr, %thread-pre-split ], [ %10, %8 ]
  %17 = icmp eq i64 %16, 6
  br i1 %17, label %18, label %21

18:                                               ; preds = %15
  %19 = getelementptr inbounds i8, ptr %0, i64 24
  %20 = tail call i32 @zend_binary_strcasecmp(ptr noundef nonnull %19, i64 noundef 6, ptr noundef nonnull @.str.19, i64 noundef 6) #30
  %.not23 = icmp eq i32 %20, 0
  br i1 %.not23, label %47, label %21

21:                                               ; preds = %18, %15
  %.pre = load i64, ptr getelementptr inbounds (%struct._zend_compiler_globals, ptr @compiler_globals, i64 0, i32 39), align 8
  br label %22

22:                                               ; preds = %zend_map_ptr_new.exit, %21
  %23 = phi i64 [ %37, %zend_map_ptr_new.exit ], [ %.pre, %21 ]
  %24 = load i64, ptr getelementptr inbounds (%struct._zend_compiler_globals, ptr @compiler_globals, i64 0, i32 38), align 8
  %.not.i = icmp ult i64 %23, %24
  %.pre.i = load ptr, ptr getelementptr inbounds (%struct._zend_compiler_globals, ptr @compiler_globals, i64 0, i32 36), align 8
  br i1 %.not.i, label %zend_map_ptr_new.exit, label %25

25:                                               ; preds = %22
  %26 = and i64 %23, -4096
  %27 = add i64 %26, 4096
  store i64 %27, ptr getelementptr inbounds (%struct._zend_compiler_globals, ptr @compiler_globals, i64 0, i32 38), align 8
  %28 = shl i64 %27, 3
  %29 = tail call ptr @__zend_realloc(ptr noundef %.pre.i, i64 noundef %28) #31
  store ptr %29, ptr getelementptr inbounds (%struct._zend_compiler_globals, ptr @compiler_globals, i64 0, i32 36), align 8
  %30 = ptrtoint ptr %29 to i64
  %31 = add i64 %30, -1
  %32 = inttoptr i64 %31 to ptr
  store ptr %32, ptr getelementptr inbounds (%struct._zend_compiler_globals, ptr @compiler_globals, i64 0, i32 37), align 8
  %.pre2.i = load i64, ptr getelementptr inbounds (%struct._zend_compiler_globals, ptr @compiler_globals, i64 0, i32 39), align 8
  br label %zend_map_ptr_new.exit

zend_map_ptr_new.exit:                            ; preds = %22, %25
  %33 = phi i64 [ %.pre2.i, %25 ], [ %23, %22 ]
  %34 = phi ptr [ %29, %25 ], [ %.pre.i, %22 ]
  %35 = getelementptr inbounds ptr, ptr %34, i64 %33
  store ptr null, ptr %35, align 8
  %36 = load i64, ptr getelementptr inbounds (%struct._zend_compiler_globals, ptr @compiler_globals, i64 0, i32 39), align 8
  %37 = add i64 %36, 1
  store i64 %37, ptr getelementptr inbounds (%struct._zend_compiler_globals, ptr @compiler_globals, i64 0, i32 39), align 8
  %38 = load ptr, ptr getelementptr inbounds (%struct._zend_compiler_globals, ptr @compiler_globals, i64 0, i32 37), align 8
  %39 = ptrtoint ptr %35 to i64
  %40 = ptrtoint ptr %38 to i64
  %41 = sub i64 %39, %40
  %42 = trunc i64 %41 to i32
  %43 = icmp ult i32 %42, 3
  br i1 %43, label %22, label %44

44:                                               ; preds = %zend_map_ptr_new.exit
  %45 = load i32, ptr %2, align 4
  %46 = or i32 %45, 32
  store i32 %46, ptr %2, align 4
  store i32 %42, ptr %0, align 4
  br label %47

47:                                               ; preds = %12, %18, %7, %1, %44
  ret void
}